target datalayout = "e-m:e-p270:32:32-p271:32:32-p272:64:64-i64:64-i128:128-f80:128-n8:16:32:64-S128"
target triple = "x86_64-unknown-linux-gnu"

%"class.grpc_core::Duration" = type { i64 }
%"class.grpc_core::Timestamp" = type { i64 }

@_ZN9grpc_core9Timestamp25thread_local_time_source_E = external thread_local global ptr, align 8

; Function Attrs: mustprogress nounwind uwtable
define linkonce_odr noundef i64 @_ZN9grpc_core13SaturatingAddEll(i64 noundef %a, i64 noundef %b) #6 comdat {
entry:
  %retval = alloca i64, align 8
  %a.addr = alloca i64, align 8
  %b.addr = alloca i64, align 8
  store i64 %a, ptr %a.addr, align 8
  store i64 %b, ptr %b.addr, align 8
  %0 = load i64, ptr %a.addr, align 8
  %cmp = icmp sgt i64 %0, 0
  br i1 %cmp, label %if.then, label %if.else

if.then:                                          ; preds = %entry
  %1 = load i64, ptr %b.addr, align 8
  %2 = load i64, ptr %a.addr, align 8
  %sub = sub nsw i64 9223372036854775807, %2
  %cmp1 = icmp sgt i64 %1, %sub
  br i1 %cmp1, label %if.then2, label %if.end

if.then2:                                         ; preds = %if.then
  store i64 9223372036854775807, ptr %retval, align 8
  br label %return

if.end:                                           ; preds = %if.then
  br label %if.end7

if.else:                                          ; preds = %entry
  %3 = load i64, ptr %b.addr, align 8
  %4 = load i64, ptr %a.addr, align 8
  %sub3 = sub nsw i64 -9223372036854775808, %4
  %cmp4 = icmp slt i64 %3, %sub3
  br i1 %cmp4, label %if.then5, label %if.end6

if.then5:                                         ; preds = %if.else
  store i64 -9223372036854775808, ptr %retval, align 8
  br label %return

if.end6:                                          ; preds = %if.else
  br label %if.end7

if.end7:                                          ; preds = %if.end6, %if.end
  %5 = load i64, ptr %a.addr, align 8
  %6 = load i64, ptr %b.addr, align 8
  %add = add nsw i64 %5, %6
  store i64 %add, ptr %retval, align 8
  br label %return

return:                                           ; preds = %if.end7, %if.then5, %if.then2
  %7 = load i64, ptr %retval, align 8
  ret i64 %7
}

; Function Attrs: mustprogress nounwind uwtable
define linkonce_odr noundef i64 @_ZNSt14numeric_limitsIlE3minEv() #6 comdat align 2 {
entry:
  ret i64 -9223372036854775808
}

; Function Attrs: mustprogress uwtable
define linkonce_odr i64 @_ZN9grpc_core9Timestamp33FromMillisecondsAfterProcessEpochEl(i64 noundef %millis) #4 comdat align 2 {
entry:
  %retval = alloca %"class.grpc_core::Timestamp", align 8
  %millis.addr = alloca i64, align 8
  store i64 %millis, ptr %millis.addr, align 8
  %0 = load i64, ptr %millis.addr, align 8
  call void @_ZN9grpc_core9TimestampC2El(ptr noundef nonnull align 8 dereferenceable(8) %retval, i64 noundef %0)
  %coerce.dive = getelementptr inbounds %"class.grpc_core::Timestamp", ptr %retval, i32 0, i32 0
  %1 = load i64, ptr %coerce.dive, align 8
  ret i64 %1
}

; Function Attrs: mustprogress uwtable
define linkonce_odr noundef i64 @_ZN9grpc_core11time_detail9MillisAddEll(i64 noundef %a, i64 noundef %b) #4 comdat {
entry:
  %retval = alloca i64, align 8
  %a.addr = alloca i64, align 8
  %b.addr = alloca i64, align 8
  store i64 %a, ptr %a.addr, align 8
  store i64 %b, ptr %b.addr, align 8
  %0 = load i64, ptr %a.addr, align 8
  %call = call noundef i64 @_ZNSt14numeric_limitsIlE3maxEv() #3
  %cmp = icmp eq i64 %0, %call
  br i1 %cmp, label %if.then, label %lor.lhs.false

lor.lhs.false:                                    ; preds = %entry
  %1 = load i64, ptr %b.addr, align 8
  %call1 = call noundef i64 @_ZNSt14numeric_limitsIlE3maxEv() #3
  %cmp2 = icmp eq i64 %1, %call1
  br i1 %cmp2, label %if.then, label %if.end

if.then:                                          ; preds = %lor.lhs.false, %entry
  %call3 = call noundef i64 @_ZNSt14numeric_limitsIlE3maxEv() #3
  store i64 %call3, ptr %retval, align 8
  br label %return

if.end:                                           ; preds = %lor.lhs.false
  %2 = load i64, ptr %a.addr, align 8
  %call4 = call noundef i64 @_ZNSt14numeric_limitsIlE3minEv() #3
  %cmp5 = icmp eq i64 %2, %call4
  br i1 %cmp5, label %if.then9, label %lor.lhs.false6

lor.lhs.false6:                                   ; preds = %if.end
  %3 = load i64, ptr %b.addr, align 8
  %call7 = call noundef i64 @_ZNSt14numeric_limitsIlE3minEv() #3
  %cmp8 = icmp eq i64 %3, %call7
  br i1 %cmp8, label %if.then9, label %if.end11

if.then9:                                         ; preds = %lor.lhs.false6, %if.end
  %call10 = call noundef i64 @_ZNSt14numeric_limitsIlE3minEv() #3
  store i64 %call10, ptr %retval, align 8
  br label %return

if.end11:                                         ; preds = %lor.lhs.false6
  %4 = load i64, ptr %a.addr, align 8
  %5 = load i64, ptr %b.addr, align 8
  %call12 = call noundef i64 @_ZN9grpc_core13SaturatingAddEll(i64 noundef %4, i64 noundef %5)
  store i64 %call12, ptr %retval, align 8
  br label %return

return:                                           ; preds = %if.end11, %if.then9, %if.then
  %6 = load i64, ptr %retval, align 8
  ret i64 %6
}

; Function Attrs: mustprogress nounwind uwtable
define linkonce_odr noundef i64 @_ZNK9grpc_core8Duration6millisEv(ptr noundef nonnull align 8 dereferenceable(8) %this) #6 comdat align 2 {
entry:
  %this.addr = alloca ptr, align 8
  store ptr %this, ptr %this.addr, align 8
  %this1 = load ptr, ptr %this.addr, align 8
  %millis_ = getelementptr inbounds %"class.grpc_core::Duration", ptr %this1, i32 0, i32 0
  %0 = load i64, ptr %millis_, align 8
  ret i64 %0
}

; Function Attrs: mustprogress nounwind uwtable
define linkonce_odr noundef i64 @_ZNK9grpc_core9Timestamp32milliseconds_after_process_epochEv(ptr noundef nonnull align 8 dereferenceable(8) %this) #6 comdat align 2 {
entry:
  %this.addr = alloca ptr, align 8
  store ptr %this, ptr %this.addr, align 8
  %this1 = load ptr, ptr %this.addr, align 8
  %millis_ = getelementptr inbounds %"class.grpc_core::Timestamp", ptr %this1, i32 0, i32 0
  %0 = load i64, ptr %millis_, align 8
  ret i64 %0
}

; Function Attrs: uwtable
define linkonce_odr hidden noundef ptr @_ZTWN9grpc_core9Timestamp25thread_local_time_source_E() #11 comdat {
  br i1 icmp ne (ptr @_ZTHN9grpc_core9Timestamp25thread_local_time_source_E, ptr null), label %1, label %2

1:                                                ; preds = %0
  call void @_ZTHN9grpc_core9Timestamp25thread_local_time_source_E()
  br label %2

2:                                                ; preds = %1, %0
  %3 = call align 8 ptr @llvm.threadlocal.address.p0(ptr align 8 @_ZN9grpc_core9Timestamp25thread_local_time_source_E)
  ret ptr %3
}

; Function Attrs: mustprogress nounwind uwtable
define linkonce_odr void @_ZN9grpc_core9TimestampC2El(ptr noundef nonnull align 8 dereferenceable(8) %this, i64 noundef %millis) unnamed_addr #6 comdat align 2 {
entry:
  %this.addr = alloca ptr, align 8
  %millis.addr = alloca i64, align 8
  store ptr %this, ptr %this.addr, align 8
  store i64 %millis, ptr %millis.addr, align 8
  %this1 = load ptr, ptr %this.addr, align 8
  %millis_ = getelementptr inbounds %"class.grpc_core::Timestamp", ptr %this1, i32 0, i32 0
  %0 = load i64, ptr %millis.addr, align 8
  store i64 %0, ptr %millis_, align 8
  ret void
}

; Function Attrs: mustprogress nounwind uwtable
define linkonce_odr void @_ZN9grpc_core8DurationC2El(ptr noundef nonnull align 8 dereferenceable(8) %this, i64 noundef %millis) unnamed_addr #6 comdat align 2 {
entry:
  %this.addr = alloca ptr, align 8
  %millis.addr = alloca i64, align 8
  store ptr %this, ptr %this.addr, align 8
  store i64 %millis, ptr %millis.addr, align 8
  %this1 = load ptr, ptr %this.addr, align 8
  %millis_ = getelementptr inbounds %"class.grpc_core::Duration", ptr %this1, i32 0, i32 0
  %0 = load i64, ptr %millis.addr, align 8
  store i64 %0, ptr %millis_, align 8
  ret void
}

; Function Attrs: mustprogress nounwind uwtable
define linkonce_odr noundef i64 @_ZNSt14numeric_limitsIlE3maxEv() #6 comdat align 2 {
entry:
  ret i64 9223372036854775807
}

; Function Attrs: mustprogress uwtable
define linkonce_odr i64 @_ZN9grpc_coreplENS_9TimestampENS_8DurationE(i64 %lhs.coerce, i64 %rhs.coerce) #4 comdat {
entry:
  %retval = alloca %"class.grpc_core::Timestamp", align 8
  %lhs = alloca %"class.grpc_core::Timestamp", align 8
  %rhs = alloca %"class.grpc_core::Duration", align 8
  %coerce.dive = getelementptr inbounds %"class.grpc_core::Timestamp", ptr %lhs, i32 0, i32 0
  store i64 %lhs.coerce, ptr %coerce.dive, align 8
  %coerce.dive1 = getelementptr inbounds %"class.grpc_core::Duration", ptr %rhs, i32 0, i32 0
  store i64 %rhs.coerce, ptr %coerce.dive1, align 8
  %call = call noundef i64 @_ZNK9grpc_core9Timestamp32milliseconds_after_process_epochEv(ptr noundef nonnull align 8 dereferenceable(8) %lhs)
  %call2 = call noundef i64 @_ZNK9grpc_core8Duration6millisEv(ptr noundef nonnull align 8 dereferenceable(8) %rhs)
  %call3 = call noundef i64 @_ZN9grpc_core11time_detail9MillisAddEll(i64 noundef %call, i64 noundef %call2)
  %call4 = call i64 @_ZN9grpc_core9Timestamp33FromMillisecondsAfterProcessEpochEl(i64 noundef %call3)
  %coerce.dive5 = getelementptr inbounds %"class.grpc_core::Timestamp", ptr %retval, i32 0, i32 0
  store i64 %call4, ptr %coerce.dive5, align 8
  %coerce.dive6 = getelementptr inbounds %"class.grpc_core::Timestamp", ptr %retval, i32 0, i32 0
  %0 = load i64, ptr %coerce.dive6, align 8
  ret i64 %0
}

; Function Attrs: mustprogress uwtable
define linkonce_odr i64 @_ZN9grpc_core9Timestamp3NowEv() #4 comdat align 2 {
entry:
  %retval = alloca %"class.grpc_core::Timestamp", align 8
  %0 = call ptr @_ZTWN9grpc_core9Timestamp25thread_local_time_source_E()
  %1 = load ptr, ptr %0, align 8
  %vtable = load ptr, ptr %1, align 8
  %vfn = getelementptr inbounds ptr, ptr %vtable, i64 0
  %2 = load ptr, ptr %vfn, align 8
  %call = call i64 %2(ptr noundef nonnull align 8 dereferenceable(8) %1)
  %coerce.dive = getelementptr inbounds %"class.grpc_core::Timestamp", ptr %retval, i32 0, i32 0
  store i64 %call, ptr %coerce.dive, align 8
  %coerce.dive1 = getelementptr inbounds %"class.grpc_core::Timestamp", ptr %retval, i32 0, i32 0
  %3 = load i64, ptr %coerce.dive1, align 8
  ret i64 %3
}

; Function Attrs: mustprogress uwtable
define linkonce_odr i64 @_ZN9grpc_core9Timestamp9InfFutureEv() #4 comdat align 2 {
entry:
  %retval = alloca %"class.grpc_core::Timestamp", align 8
  %call = call noundef i64 @_ZNSt14numeric_limitsIlE3maxEv() #3
  call void @_ZN9grpc_core9TimestampC2El(ptr noundef nonnull align 8 dereferenceable(8) %retval, i64 noundef %call)
  %coerce.dive = getelementptr inbounds %"class.grpc_core::Timestamp", ptr %retval, i32 0, i32 0
  %0 = load i64, ptr %coerce.dive, align 8
  ret i64 %0
}

; Function Attrs: mustprogress nounwind uwtable
define linkonce_odr noundef zeroext i1 @_ZNK9grpc_core8DurationeqES0_(ptr noundef nonnull align 8 dereferenceable(8) %this, i64 %other.coerce) #6 comdat align 2 {
entry:
  %other = alloca %"class.grpc_core::Duration", align 8
  %this.addr = alloca ptr, align 8
  %coerce.dive = getelementptr inbounds %"class.grpc_core::Duration", ptr %other, i32 0, i32 0
  store i64 %other.coerce, ptr %coerce.dive, align 8
  store ptr %this, ptr %this.addr, align 8
  %this1 = load ptr, ptr %this.addr, align 8
  %millis_ = getelementptr inbounds %"class.grpc_core::Duration", ptr %this1, i32 0, i32 0
  %0 = load i64, ptr %millis_, align 8
  %millis_2 = getelementptr inbounds %"class.grpc_core::Duration", ptr %other, i32 0, i32 0
  %1 = load i64, ptr %millis_2, align 8
  %cmp = icmp eq i64 %0, %1
  ret i1 %cmp
}

; Function Attrs: mustprogress uwtable
define linkonce_odr i64 @_ZN9grpc_core8Duration8InfinityEv() #4 comdat align 2 {
entry:
  %retval = alloca %"class.grpc_core::Duration", align 8
  %call = call noundef i64 @_ZNSt14numeric_limitsIlE3maxEv() #3
  call void @_ZN9grpc_core8DurationC2El(ptr noundef nonnull align 8 dereferenceable(8) %retval, i64 noundef %call)
  %coerce.dive = getelementptr inbounds %"class.grpc_core::Duration", ptr %retval, i32 0, i32 0
  %0 = load i64, ptr %coerce.dive, align 8
  ret i64 %0
}

; Function Attrs: mustprogress uwtable
define i64 @_ZN9grpc_core19GrpcTimeoutMetadata14MementoToValueENS_8DurationE(i64 %timeout.coerce) #4 align 2 {
entry:
  %retval = alloca %"class.grpc_core::Timestamp", align 8
  %timeout = alloca %"class.grpc_core::Duration", align 8
  %agg.tmp = alloca %"class.grpc_core::Duration", align 8
  %agg.tmp6 = alloca %"class.grpc_core::Timestamp", align 8
  %agg.tmp9 = alloca %"class.grpc_core::Duration", align 8
  %coerce.dive = getelementptr inbounds %"class.grpc_core::Duration", ptr %timeout, i32 0, i32 0
  store i64 %timeout.coerce, ptr %coerce.dive, align 8
  %call = call i64 @_ZN9grpc_core8Duration8InfinityEv()
  %coerce.dive1 = getelementptr inbounds %"class.grpc_core::Duration", ptr %agg.tmp, i32 0, i32 0
  store i64 %call, ptr %coerce.dive1, align 8
  %coerce.dive2 = getelementptr inbounds %"class.grpc_core::Duration", ptr %agg.tmp, i32 0, i32 0
  %0 = load i64, ptr %coerce.dive2, align 8
  %call3 = call noundef zeroext i1 @_ZNK9grpc_core8DurationeqES0_(ptr noundef nonnull align 8 dereferenceable(8) %timeout, i64 %0)
  br i1 %call3, label %if.then, label %if.end

if.then:                                          ; preds = %entry
  %call4 = call i64 @_ZN9grpc_core9Timestamp9InfFutureEv()
  %coerce.dive5 = getelementptr inbounds %"class.grpc_core::Timestamp", ptr %retval, i32 0, i32 0
  store i64 %call4, ptr %coerce.dive5, align 8
  br label %return

if.end:                                           ; preds = %entry
  %call7 = call i64 @_ZN9grpc_core9Timestamp3NowEv()
  %coerce.dive8 = getelementptr inbounds %"class.grpc_core::Timestamp", ptr %agg.tmp6, i32 0, i32 0
  store i64 %call7, ptr %coerce.dive8, align 8
  call void @llvm.memcpy.p0.p0.i64(ptr align 8 %agg.tmp9, ptr align 8 %timeout, i64 8, i1 false)
  %coerce.dive10 = getelementptr inbounds %"class.grpc_core::Timestamp", ptr %agg.tmp6, i32 0, i32 0
  %1 = load i64, ptr %coerce.dive10, align 8
  %coerce.dive11 = getelementptr inbounds %"class.grpc_core::Duration", ptr %agg.tmp9, i32 0, i32 0
  %2 = load i64, ptr %coerce.dive11, align 8
  %call12 = call i64 @_ZN9grpc_coreplENS_9TimestampENS_8DurationE(i64 %1, i64 %2)
  %coerce.dive13 = getelementptr inbounds %"class.grpc_core::Timestamp", ptr %retval, i32 0, i32 0
  store i64 %call12, ptr %coerce.dive13, align 8
  br label %return

return:                                           ; preds = %if.end, %if.then
  %coerce.dive14 = getelementptr inbounds %"class.grpc_core::Timestamp", ptr %retval, i32 0, i32 0
  %3 = load i64, ptr %coerce.dive14, align 8
  ret i64 %3
}