; Function Attrs: uwtable
define i64 @_ZN9grpc_core19GrpcTimeoutMetadata14MementoToValueENS_8DurationE(i64 %timeout.coerce) local_unnamed_addr #8 align 2 {
entry:
  %cmp.i = icmp eq i64 %timeout.coerce, 9223372036854775807
  br i1 %cmp.i, label %return, label %if.end

if.end:                                           ; preds = %entry
  br i1 icmp ne (ptr @_ZTHN9grpc_core9Timestamp25thread_local_time_source_E, ptr null), label %0, label %_ZN9grpc_core9Timestamp3NowEv.exit

0:                                                ; preds = %if.end
  tail call void @_ZTHN9grpc_core9Timestamp25thread_local_time_source_E()
  br label %_ZN9grpc_core9Timestamp3NowEv.exit

_ZN9grpc_core9Timestamp3NowEv.exit:               ; preds = %if.end, %0
  %1 = tail call noundef align 8 ptr @llvm.threadlocal.address.p0(ptr align 8 @_ZN9grpc_core9Timestamp25thread_local_time_source_E)
  %2 = load ptr, ptr %1, align 8
  %vtable.i = load ptr, ptr %2, align 8
  %3 = load ptr, ptr %vtable.i, align 8
  %call.i = tail call i64 %3(ptr noundef nonnull align 8 dereferenceable(8) %2)
  %cmp.i.i = icmp eq i64 %call.i, 9223372036854775807
  br i1 %cmp.i.i, label %return, label %if.end.i.i

if.end.i.i:                                       ; preds = %_ZN9grpc_core9Timestamp3NowEv.exit
  %cmp5.i.i = icmp eq i64 %call.i, -9223372036854775808
  %cmp8.i.i = icmp eq i64 %timeout.coerce, -9223372036854775808
  %or.cond5.i.i = or i1 %cmp8.i.i, %cmp5.i.i
  br i1 %or.cond5.i.i, label %return, label %if.end11.i.i

if.end11.i.i:                                     ; preds = %if.end.i.i
  %cmp.i.i.i = icmp sgt i64 %call.i, 0
  br i1 %cmp.i.i.i, label %if.then.i.i.i, label %if.else.i.i.i

if.then.i.i.i:                                    ; preds = %if.end11.i.i
  %sub.i.i.i = xor i64 %call.i, 9223372036854775807
  %cmp1.i.i.i = icmp slt i64 %sub.i.i.i, %timeout.coerce
  br i1 %cmp1.i.i.i, label %return, label %if.end7.i.i.i

if.else.i.i.i:                                    ; preds = %if.end11.i.i
  %sub3.i.i.i = sub nsw i64 -9223372036854775808, %call.i
  %cmp4.i.i.i = icmp sgt i64 %sub3.i.i.i, %timeout.coerce
  br i1 %cmp4.i.i.i, label %return, label %if.end7.i.i.i

if.end7.i.i.i:                                    ; preds = %if.else.i.i.i, %if.then.i.i.i
  %add.i.i.i = add nsw i64 %call.i, %timeout.coerce
  br label %return

return:                                           ; preds = %if.end7.i.i.i, %if.else.i.i.i, %if.then.i.i.i, %if.end.i.i, %_ZN9grpc_core9Timestamp3NowEv.exit, %entry
  %retval.sroa.0.0 = phi i64 [ 9223372036854775807, %entry ], [ 9223372036854775807, %_ZN9grpc_core9Timestamp3NowEv.exit ], [ -9223372036854775808, %if.end.i.i ], [ %add.i.i.i, %if.end7.i.i.i ], [ 9223372036854775807, %if.then.i.i.i ], [ -9223372036854775808, %if.else.i.i.i ]
  ret i64 %retval.sroa.0.0
}